target datalayout = "e-m:e-p270:32:32-p271:32:32-p272:64:64-i64:64-i128:128-f80:128-n8:16:32:64-S128"
target triple = "x86_64-pc-linux-gnu"

%struct.RString = type { %struct.RBasic, i64, %union.anon.1 }
%struct.RBasic = type { i64, i64 }
%union.anon.1 = type { %struct.anon.2 }
%struct.anon.2 = type { ptr, %union.anon.3 }
%union.anon.3 = type { i64 }
%struct.OnigEncodingTypeST = type { ptr, ptr, i32, i32, ptr, ptr, ptr, ptr, ptr, ptr, ptr, ptr, ptr, ptr, ptr, ptr, ptr, i32, i32 }
%struct.anon.4 = type { [1 x i8] }

@.str.101 = private unnamed_addr constant [21 x i8] c"../internal/object.h\00", align 1

; Function Attrs: inlinehint nounwind sspstrong willreturn memory(read) uwtable
define internal i64 @RB_FL_TEST_RAW(i64 noundef %0, i64 noundef %1) #11 {
  %3 = alloca i64, align 8
  %4 = alloca i64, align 8
  store i64 %0, ptr %3, align 8, !tbaa !12
  store i64 %1, ptr %4, align 8, !tbaa !12
  %5 = load i64, ptr %3, align 8, !tbaa !12
  %6 = inttoptr i64 %5 to ptr
  %7 = getelementptr inbounds nuw %struct.RBasic, ptr %6, i32 0, i32 0
  %8 = load i64, ptr %7, align 8, !tbaa !212
  %9 = load i64, ptr %4, align 8, !tbaa !12
  %10 = and i64 %8, %9
  ret i64 %10
}

; Function Attrs: inlinehint nounwind sspstrong memory(argmem: readwrite, inaccessiblemem: readwrite) uwtable
define internal void @rbimpl_fl_set_raw_raw(ptr noundef %0, i64 noundef %1) #9 {
  %3 = alloca ptr, align 8
  %4 = alloca i64, align 8
  store ptr %0, ptr %3, align 8, !tbaa !213
  store i64 %1, ptr %4, align 8, !tbaa !12
  %5 = load i64, ptr %4, align 8, !tbaa !12
  %6 = load ptr, ptr %3, align 8, !tbaa !213
  %7 = getelementptr inbounds nuw %struct.RBasic, ptr %6, i32 0, i32 0
  %8 = load i64, ptr %7, align 8, !tbaa !212
  %9 = or i64 %8, %5
  store i64 %9, ptr %7, align 8, !tbaa !212
  ret void
}

; Function Attrs: inlinehint nounwind sspstrong memory(argmem: readwrite, inaccessiblemem: readwrite) uwtable
define internal void @rbimpl_fl_unset_raw_raw(ptr noundef %0, i64 noundef %1) #9 {
  %3 = alloca ptr, align 8
  %4 = alloca i64, align 8
  store ptr %0, ptr %3, align 8, !tbaa !213
  store i64 %1, ptr %4, align 8, !tbaa !12
  %5 = load i64, ptr %4, align 8, !tbaa !12
  %6 = xor i64 %5, -1
  %7 = load ptr, ptr %3, align 8, !tbaa !213
  %8 = getelementptr inbounds nuw %struct.RBasic, ptr %7, i32 0, i32 0
  %9 = load i64, ptr %8, align 8, !tbaa !212
  %10 = and i64 %9, %6
  store i64 %10, ptr %8, align 8, !tbaa !212
  ret void
}

; Function Attrs: inlinehint nounwind sspstrong willreturn memory(read) uwtable
define internal i64 @RSTRING_LEN(i64 noundef %0) #11 {
  %2 = alloca i64, align 8
  store i64 %0, ptr %2, align 8, !tbaa !12
  %3 = load i64, ptr %2, align 8, !tbaa !12
  %4 = inttoptr i64 %3 to ptr
  %5 = getelementptr inbounds nuw %struct.RString, ptr %4, i32 0, i32 1
  %6 = load i64, ptr %5, align 8, !tbaa !108
  ret i64 %6
}

; Function Attrs: inlinehint nounwind sspstrong willreturn memory(read) uwtable
define internal zeroext i1 @RB_FL_ANY_RAW(i64 noundef %0, i64 noundef %1) #11 {
  %3 = alloca i64, align 8
  %4 = alloca i64, align 8
  store i64 %0, ptr %3, align 8, !tbaa !12
  store i64 %1, ptr %4, align 8, !tbaa !12
  %5 = load i64, ptr %3, align 8, !tbaa !12
  %6 = load i64, ptr %4, align 8, !tbaa !12
  %7 = call i64 @RB_FL_TEST_RAW(i64 noundef %5, i64 noundef %6) #29
  %8 = icmp ne i64 %7, 0
  ret i1 %8
}

; Function Attrs: inlinehint nounwind sspstrong willreturn memory(none) uwtable
define internal zeroext i1 @RB_IMMEDIATE_P(i64 noundef %0) #10 {
  %2 = alloca i64, align 8
  store i64 %0, ptr %2, align 8, !tbaa !12
  %3 = load i64, ptr %2, align 8, !tbaa !12
  %4 = and i64 %3, 7
  %5 = icmp ne i64 %4, 0
  ret i1 %5
}

; Function Attrs: inlinehint nounwind sspstrong uwtable
define internal void @RB_FL_SET_RAW(i64 noundef %0, i64 noundef %1) #7 {
  %3 = alloca i64, align 8
  %4 = alloca i64, align 8
  store i64 %0, ptr %3, align 8, !tbaa !12
  store i64 %1, ptr %4, align 8, !tbaa !12
  %5 = load i64, ptr %3, align 8, !tbaa !12
  %6 = inttoptr i64 %5 to ptr
  %7 = load i64, ptr %4, align 8, !tbaa !12
  call void @rbimpl_fl_set_raw_raw(ptr noundef %6, i64 noundef %7) #28
  ret void
}

; Function Attrs: inlinehint nounwind sspstrong uwtable
define internal void @RB_FL_UNSET_RAW(i64 noundef %0, i64 noundef %1) #7 {
  %3 = alloca i64, align 8
  %4 = alloca i64, align 8
  store i64 %0, ptr %3, align 8, !tbaa !12
  store i64 %1, ptr %4, align 8, !tbaa !12
  %5 = load i64, ptr %3, align 8, !tbaa !12
  %6 = inttoptr i64 %5 to ptr
  %7 = load i64, ptr %4, align 8, !tbaa !12
  call void @rbimpl_fl_unset_raw_raw(ptr noundef %6, i64 noundef %7) #28
  ret void
}

; Function Attrs: inlinehint nounwind sspstrong willreturn memory(read, argmem: readwrite) uwtable
define internal void @rbimpl_rstring_getmem(ptr dead_on_unwind noalias writable sret(%struct.RString) align 8 %0, i64 noundef %1) #22 {
  %3 = alloca i64, align 8
  store i64 %1, ptr %3, align 8, !tbaa !12
  %4 = load i64, ptr %3, align 8, !tbaa !12
  %5 = call zeroext i1 @RB_FL_ANY_RAW(i64 noundef %4, i64 noundef 8192) #29
  br i1 %5, label %6, label %9

6:                                                ; preds = %2
  %7 = load i64, ptr %3, align 8, !tbaa !12
  %8 = inttoptr i64 %7 to ptr
  call void @llvm.memcpy.p0.p0.i64(ptr align 8 %0, ptr align 8 %8, i64 40, i1 false), !tbaa.struct !211
  br label %20

9:                                                ; preds = %2
  %10 = load i64, ptr %3, align 8, !tbaa !12
  %11 = call i64 @RSTRING_LEN(i64 noundef %10) #29
  %12 = getelementptr inbounds nuw %struct.RString, ptr %0, i32 0, i32 1
  store i64 %11, ptr %12, align 8, !tbaa !108
  %13 = load i64, ptr %3, align 8, !tbaa !12
  %14 = inttoptr i64 %13 to ptr
  %15 = getelementptr inbounds nuw %struct.RString, ptr %14, i32 0, i32 2
  %16 = getelementptr inbounds nuw %struct.anon.4, ptr %15, i32 0, i32 0
  %17 = getelementptr inbounds [1 x i8], ptr %16, i64 0, i64 0
  %18 = getelementptr inbounds nuw %struct.RString, ptr %0, i32 0, i32 2
  %19 = getelementptr inbounds nuw %struct.anon.2, ptr %18, i32 0, i32 0
  store ptr %17, ptr %19, align 8, !tbaa !41
  br label %20

20:                                               ; preds = %9, %6
  ret void
}

; Function Attrs: inlinehint nounwind sspstrong uwtable
define internal i32 @rb_enc_mbminlen(ptr noundef %0) #7 {
  %2 = alloca ptr, align 8
  store ptr %0, ptr %2, align 8, !tbaa !106
  %3 = load ptr, ptr %2, align 8, !tbaa !106
  %4 = getelementptr inbounds nuw %struct.OnigEncodingTypeST, ptr %3, i32 0, i32 3
  %5 = load i32, ptr %4, align 4, !tbaa !217
  ret i32 %5
}

; Function Attrs: inlinehint nounwind sspstrong willreturn memory(none) uwtable
define internal zeroext i1 @RB_SPECIAL_CONST_P(i64 noundef %0) #10 {
  %2 = alloca i64, align 8
  store i64 %0, ptr %2, align 8, !tbaa !12
  %3 = load i64, ptr %2, align 8, !tbaa !12
  %4 = icmp eq i64 %3, 0
  br i1 %4, label %8, label %5

5:                                                ; preds = %1
  %6 = load i64, ptr %2, align 8, !tbaa !12
  %7 = call zeroext i1 @RB_IMMEDIATE_P(i64 noundef %6) #31
  br label %8

8:                                                ; preds = %5, %1
  %9 = phi i1 [ true, %1 ], [ %7, %5 ]
  ret i1 %9
}

; Function Attrs: inlinehint nounwind sspstrong uwtable
define internal void @RB_ENC_CODERANGE_SET(i64 noundef %0, i32 noundef %1) #7 {
  %3 = alloca i64, align 8
  %4 = alloca i32, align 4
  store i64 %0, ptr %3, align 8, !tbaa !12
  store i32 %1, ptr %4, align 4, !tbaa !29
  %5 = load i64, ptr %3, align 8, !tbaa !12
  call void @RB_FL_UNSET_RAW(i64 noundef %5, i64 noundef 3145728)
  %6 = load i64, ptr %3, align 8, !tbaa !12
  %7 = load i32, ptr %4, align 4, !tbaa !29
  %8 = zext i32 %7 to i64
  call void @RB_FL_SET_RAW(i64 noundef %6, i64 noundef %8)
  ret void
}

; Function Attrs: inlinehint nounwind sspstrong uwtable
define internal ptr @RSTRING_END(i64 noundef %0) #7 {
  %2 = alloca i64, align 8
  %3 = alloca %struct.RString, align 8
  store i64 %0, ptr %2, align 8, !tbaa !12
  call void @llvm.lifetime.start.p0(i64 40, ptr %3) #25
  %4 = load i64, ptr %2, align 8, !tbaa !12
  call void @rbimpl_rstring_getmem(ptr dead_on_unwind writable sret(%struct.RString) align 8 %3, i64 noundef %4) #32
  %5 = getelementptr inbounds nuw %struct.RString, ptr %3, i32 0, i32 2
  %6 = getelementptr inbounds nuw %struct.anon.2, ptr %5, i32 0, i32 0
  %7 = load ptr, ptr %6, align 8, !tbaa !41
  %8 = getelementptr inbounds nuw %struct.RString, ptr %3, i32 0, i32 1
  %9 = load i64, ptr %8, align 8, !tbaa !108
  %10 = getelementptr i8, ptr %7, i64 %9
  call void @llvm.lifetime.end.p0(i64 40, ptr %3) #25
  ret ptr %10
}

; Function Attrs: inlinehint nounwind sspstrong uwtable
define internal ptr @RSTRING_PTR(i64 noundef %0) #7 {
  %2 = alloca i64, align 8
  %3 = alloca ptr, align 8
  %4 = alloca %struct.RString, align 8
  store i64 %0, ptr %2, align 8, !tbaa !12
  call void @llvm.lifetime.start.p0(i64 8, ptr %3) #25
  %5 = load i64, ptr %2, align 8, !tbaa !12
  call void @rbimpl_rstring_getmem(ptr dead_on_unwind writable sret(%struct.RString) align 8 %4, i64 noundef %5) #32
  %6 = getelementptr inbounds nuw %struct.RString, ptr %4, i32 0, i32 2
  %7 = getelementptr inbounds nuw %struct.anon.2, ptr %6, i32 0, i32 0
  %8 = load ptr, ptr %7, align 8, !tbaa !41
  store ptr %8, ptr %3, align 8, !tbaa !21
  %9 = load ptr, ptr %3, align 8, !tbaa !21
  call void @llvm.lifetime.end.p0(i64 8, ptr %3) #25
  ret ptr %9
}

; Function Attrs: inlinehint nounwind sspstrong uwtable
define internal zeroext i1 @rb_enc_asciicompat(ptr noundef %0) #7 {
  %2 = alloca i1, align 1
  %3 = alloca ptr, align 8
  store ptr %0, ptr %3, align 8, !tbaa !106
  %4 = load ptr, ptr %3, align 8, !tbaa !106
  %5 = call i32 @rb_enc_mbminlen(ptr noundef %4)
  %6 = icmp ne i32 %5, 1
  br i1 %6, label %7, label %8

7:                                                ; preds = %1
  store i1 false, ptr %2, align 1
  br label %14

8:                                                ; preds = %1
  %9 = load ptr, ptr %3, align 8, !tbaa !106
  %10 = call i32 @rb_enc_dummy_p(ptr noundef %9) #29
  %11 = icmp ne i32 %10, 0
  br i1 %11, label %12, label %13

12:                                               ; preds = %8
  store i1 false, ptr %2, align 1
  br label %14

13:                                               ; preds = %8
  store i1 true, ptr %2, align 1
  br label %14

14:                                               ; preds = %13, %12, %7
  %15 = load i1, ptr %2, align 1
  ret i1 %15
}

; Function Attrs: inlinehint nounwind sspstrong uwtable
define internal i64 @rb_obj_written(i64 noundef %0, i64 noundef %1, i64 noundef %2, ptr noundef %3, i32 noundef %4) #7 {
  %6 = alloca i64, align 8
  %7 = alloca i64, align 8
  %8 = alloca i64, align 8
  %9 = alloca ptr, align 8
  %10 = alloca i32, align 4
  store i64 %0, ptr %6, align 8, !tbaa !12
  store i64 %1, ptr %7, align 8, !tbaa !12
  store i64 %2, ptr %8, align 8, !tbaa !12
  store ptr %3, ptr %9, align 8, !tbaa !21
  store i32 %4, ptr %10, align 4, !tbaa !29
  %11 = load i64, ptr %8, align 8, !tbaa !12
  %12 = call zeroext i1 @RB_SPECIAL_CONST_P(i64 noundef %11) #31
  br i1 %12, label %16, label %13

13:                                               ; preds = %5
  %14 = load i64, ptr %6, align 8, !tbaa !12
  %15 = load i64, ptr %8, align 8, !tbaa !12
  call void @rb_gc_writebarrier(i64 noundef %14, i64 noundef %15)
  br label %16

16:                                               ; preds = %13, %5
  %17 = load i64, ptr %6, align 8, !tbaa !12
  ret i64 %17
}

; Function Attrs: inlinehint nounwind sspstrong uwtable
define internal void @RBASIC_SET_CLASS_RAW(i64 noundef %0, i64 noundef %1) #7 {
  %3 = alloca i64, align 8
  %4 = alloca i64, align 8
  %5 = alloca ptr, align 8
  store i64 %0, ptr %3, align 8, !tbaa !12
  store i64 %1, ptr %4, align 8, !tbaa !12
  call void @llvm.lifetime.start.p0(i64 8, ptr %5) #25
  %6 = load i64, ptr %3, align 8, !tbaa !12
  %7 = inttoptr i64 %6 to ptr
  %8 = getelementptr inbounds nuw %struct.RBasic, ptr %7, i32 0, i32 1
  store ptr %8, ptr %5, align 8, !tbaa !80
  %9 = load i64, ptr %4, align 8, !tbaa !12
  %10 = load ptr, ptr %5, align 8, !tbaa !80
  store i64 %9, ptr %10, align 8, !tbaa !12
  call void @llvm.lifetime.end.p0(i64 8, ptr %5) #25
  ret void
}

; Function Attrs: inlinehint nounwind sspstrong willreturn memory(read) uwtable
define internal i64 @RBASIC_CLASS(i64 noundef %0) #11 {
  %2 = alloca i64, align 8
  store i64 %0, ptr %2, align 8, !tbaa !12
  %3 = load i64, ptr %2, align 8, !tbaa !12
  %4 = inttoptr i64 %3 to ptr
  %5 = getelementptr inbounds nuw %struct.RBasic, ptr %4, i32 0, i32 1
  %6 = load i64, ptr %5, align 8, !tbaa !218
  ret i64 %6
}

; Function Attrs: inlinehint nounwind sspstrong uwtable
define internal i64 @str_encode_associate(i64 noundef %0, i32 noundef %1) #7 {
  %3 = alloca i64, align 8
  %4 = alloca i32, align 4
  %5 = alloca i32, align 4
  store i64 %0, ptr %3, align 8, !tbaa !12
  store i32 %1, ptr %4, align 4, !tbaa !29
  call void @llvm.lifetime.start.p0(i64 4, ptr %5) #25
  store i32 0, ptr %5, align 4, !tbaa !29
  %6 = load i64, ptr %3, align 8, !tbaa !12
  %7 = load i32, ptr %4, align 4, !tbaa !29
  %8 = call i64 @rb_enc_associate_index(i64 noundef %6, i32 noundef %7)
  %9 = load i32, ptr %4, align 4, !tbaa !29
  %10 = call ptr @rb_enc_from_index(i32 noundef %9)
  %11 = call zeroext i1 @rb_enc_asciicompat(ptr noundef %10)
  br i1 %11, label %12, label %18

12:                                               ; preds = %2
  %13 = load i64, ptr %3, align 8, !tbaa !12
  %14 = call ptr @RSTRING_PTR(i64 noundef %13)
  %15 = load i64, ptr %3, align 8, !tbaa !12
  %16 = call ptr @RSTRING_END(i64 noundef %15)
  %17 = call i64 @rb_str_coderange_scan_restartable(ptr noundef %14, ptr noundef %16, ptr noundef null, ptr noundef %5)
  br label %19

18:                                               ; preds = %2
  store i32 2097152, ptr %5, align 4, !tbaa !29
  br label %19

19:                                               ; preds = %18, %12
  %20 = load i64, ptr %3, align 8, !tbaa !12
  %21 = load i32, ptr %5, align 4, !tbaa !29
  call void @RB_ENC_CODERANGE_SET(i64 noundef %20, i32 noundef %21)
  %22 = load i64, ptr %3, align 8, !tbaa !12
  call void @llvm.lifetime.end.p0(i64 4, ptr %5) #25
  ret i64 %22
}

; Function Attrs: inlinehint nounwind sspstrong uwtable
define internal void @RBASIC_SET_CLASS(i64 noundef %0, i64 noundef %1) #7 {
  %3 = alloca i64, align 8
  %4 = alloca i64, align 8
  %5 = alloca i64, align 8
  store i64 %0, ptr %3, align 8, !tbaa !12
  store i64 %1, ptr %4, align 8, !tbaa !12
  call void @llvm.lifetime.start.p0(i64 8, ptr %5) #25
  %6 = load i64, ptr %3, align 8, !tbaa !12
  %7 = call i64 @RBASIC_CLASS(i64 noundef %6) #29
  store i64 %7, ptr %5, align 8, !tbaa !12
  %8 = load i64, ptr %3, align 8, !tbaa !12
  %9 = load i64, ptr %4, align 8, !tbaa !12
  call void @RBASIC_SET_CLASS_RAW(i64 noundef %8, i64 noundef %9)
  %10 = load i64, ptr %3, align 8, !tbaa !12
  %11 = load i64, ptr %5, align 8, !tbaa !12
  %12 = load i64, ptr %4, align 8, !tbaa !12
  %13 = call i64 @rb_obj_written(i64 noundef %10, i64 noundef %11, i64 noundef %12, ptr noundef @.str.101, i32 noundef 61)
  call void @llvm.lifetime.end.p0(i64 8, ptr %5) #25
  ret void
}

; Function Attrs: nounwind sspstrong uwtable
define internal i64 @encoded_dup(i64 noundef %0, i64 noundef %1, i32 noundef %2) #0 {
  %4 = alloca i64, align 8
  %5 = alloca i64, align 8
  %6 = alloca i64, align 8
  %7 = alloca i32, align 4
  store i64 %0, ptr %5, align 8, !tbaa !12
  store i64 %1, ptr %6, align 8, !tbaa !12
  store i32 %2, ptr %7, align 4, !tbaa !29
  %8 = load i32, ptr %7, align 4, !tbaa !29
  %9 = icmp slt i32 %8, 0
  br i1 %9, label %10, label %13

10:                                               ; preds = %3
  %11 = load i64, ptr %6, align 8, !tbaa !12
  %12 = call i64 @rb_str_dup(i64 noundef %11)
  store i64 %12, ptr %4, align 8
  br label %32

13:                                               ; preds = %3
  %14 = load i64, ptr %5, align 8, !tbaa !12
  %15 = load i64, ptr %6, align 8, !tbaa !12
  %16 = icmp eq i64 %14, %15
  br i1 %16, label %17, label %24

17:                                               ; preds = %13
  %18 = load i64, ptr %6, align 8, !tbaa !12
  %19 = call i64 @rb_str_dup(i64 noundef %18)
  store i64 %19, ptr %5, align 8, !tbaa !12
  %20 = load i64, ptr %5, align 8, !tbaa !12
  %21 = load i32, ptr %7, align 4, !tbaa !29
  %22 = call i64 @rb_enc_associate_index(i64 noundef %20, i32 noundef %21)
  %23 = load i64, ptr %5, align 8, !tbaa !12
  store i64 %23, ptr %4, align 8
  br label %32

24:                                               ; preds = %13
  %25 = load i64, ptr %5, align 8, !tbaa !12
  %26 = load i64, ptr %6, align 8, !tbaa !12
  %27 = call i64 @rb_obj_class(i64 noundef %26)
  call void @RBASIC_SET_CLASS(i64 noundef %25, i64 noundef %27)
  br label %28

28:                                               ; preds = %24
  %29 = load i64, ptr %5, align 8, !tbaa !12
  %30 = load i32, ptr %7, align 4, !tbaa !29
  %31 = call i64 @str_encode_associate(i64 noundef %29, i32 noundef %30)
  store i64 %31, ptr %4, align 8
  br label %32

32:                                               ; preds = %28, %17, %10
  %33 = load i64, ptr %4, align 8
  ret i64 %33
}