; Function Attrs: nounwind sspstrong uwtable
define internal fastcc i64 @encoded_dup(i64 noundef %0, i64 noundef %1, i32 noundef %2) unnamed_addr #0 {
  %4 = alloca i32, align 4
  %5 = icmp slt i32 %2, 0
  br i1 %5, label %6, label %8

6:                                                ; preds = %3
  %7 = tail call i64 @rb_str_dup(i64 noundef %1) #22
  br label %38

8:                                                ; preds = %3
  %9 = icmp eq i64 %0, %1
  br i1 %9, label %10, label %13

10:                                               ; preds = %8
  %11 = tail call i64 @rb_str_dup(i64 noundef %0) #22
  %12 = tail call i64 @rb_enc_associate_index(i64 noundef %11, i32 noundef %2) #22
  br label %38

13:                                               ; preds = %8
  %14 = tail call i64 @rb_obj_class(i64 noundef %1) #22
  %15 = inttoptr i64 %0 to ptr
  %16 = getelementptr inbounds nuw i8, ptr %15, i64 8
  store i64 %14, ptr %16, align 8, !tbaa !22
  %17 = icmp eq i64 %14, 0
  %18 = and i64 %14, 7
  %19 = icmp ne i64 %18, 0
  %20 = or i1 %17, %19
  br i1 %20, label %RBASIC_SET_CLASS.exit, label %21

21:                                               ; preds = %13
  tail call void @rb_gc_writebarrier(i64 noundef %0, i64 noundef %14) #22
  br label %RBASIC_SET_CLASS.exit

RBASIC_SET_CLASS.exit:                            ; preds = %13, %21
  call void @llvm.lifetime.start.p0(i64 4, ptr nonnull %4) #22
  store i32 0, ptr %4, align 4, !tbaa !87
  %22 = tail call i64 @rb_enc_associate_index(i64 noundef %0, i32 noundef range(i32 0, -2147483648) %2) #22
  %23 = tail call ptr @rb_enc_from_index(i32 noundef range(i32 0, -2147483648) %2) #22
  %24 = getelementptr i8, ptr %23, i64 20
  %.val.i.i = load i32, ptr %24, align 4, !tbaa !151
  %.not.i.i = icmp eq i32 %.val.i.i, 1
  br i1 %.not.i.i, label %rb_enc_asciicompat.exit.i, label %str_encode_associate.exit

rb_enc_asciicompat.exit.i:                        ; preds = %RBASIC_SET_CLASS.exit
  %25 = tail call i32 @rb_enc_dummy_p(ptr noundef nonnull readonly %23) #25
  %.not3.i.i = icmp eq i32 %25, 0
  br i1 %.not3.i.i, label %26, label %str_encode_associate.exit

26:                                               ; preds = %rb_enc_asciicompat.exit.i
  %27 = load i64, ptr %15, align 8, !tbaa !33, !noalias !170
  %28 = and i64 %27, 8192
  %.not.i.i.i = icmp eq i64 %28, 0
  %29 = getelementptr inbounds nuw i8, ptr %15, i64 24
  br i1 %.not.i.i.i, label %RSTRING_END.exit.i, label %30

30:                                               ; preds = %26
  %.sroa.2.0.copyload.i.i = load ptr, ptr %29, align 8
  br label %RSTRING_END.exit.i

RSTRING_END.exit.i:                               ; preds = %30, %26
  %.sroa.5.0.i.i = phi ptr [ %.sroa.2.0.copyload.i.i, %30 ], [ %29, %26 ]
  %.sroa.3.0.in.i.i = getelementptr inbounds nuw i8, ptr %15, i64 16
  %.sroa.3.0.i.i = load i64, ptr %.sroa.3.0.in.i.i, align 8, !tbaa !22
  %31 = getelementptr i8, ptr %.sroa.5.0.i.i, i64 %.sroa.3.0.i.i
  %32 = call i64 @rb_str_coderange_scan_restartable(ptr noundef %.sroa.5.0.i.i, ptr noundef %31, ptr noundef null, ptr noundef nonnull %4) #22
  %.pre.i = load i32, ptr %4, align 4, !tbaa !87
  %33 = zext i32 %.pre.i to i64
  br label %str_encode_associate.exit

str_encode_associate.exit:                        ; preds = %RBASIC_SET_CLASS.exit, %rb_enc_asciicompat.exit.i, %RSTRING_END.exit.i
  %34 = phi i64 [ %33, %RSTRING_END.exit.i ], [ 2097152, %rb_enc_asciicompat.exit.i ], [ 2097152, %RBASIC_SET_CLASS.exit ]
  %35 = load i64, ptr %15, align 8, !tbaa !33
  %36 = and i64 %35, -3145729
  %37 = or i64 %36, %34
  store i64 %37, ptr %15, align 8, !tbaa !33
  call void @llvm.lifetime.end.p0(i64 4, ptr nonnull %4) #22
  br label %38

38:                                               ; preds = %str_encode_associate.exit, %10, %6
  %.0 = phi i64 [ %7, %6 ], [ %11, %10 ], [ %0, %str_encode_associate.exit ]
  ret i64 %.0
}